; Function Attrs: mustprogress uwtable
define noundef zeroext i1 @_ZNK5arrow9ArraySpan19IsNullRunEndEncodedEl(ptr noundef nonnull align 8 dereferenceable(128) %0, i64 noundef %1) local_unnamed_addr #0 align 2 {
  %3 = getelementptr inbounds nuw i8, ptr %0, i64 104
  %4 = load ptr, ptr %3, align 8, !tbaa !64
  %5 = getelementptr inbounds nuw i8, ptr %4, i64 128
  %6 = tail call noundef zeroext i1 @_ZNK5arrow9ArraySpan19MayHaveLogicalNullsEv(ptr noundef nonnull align 8 dereferenceable(128) %5)
  br i1 %6, label %7, label %15

7:                                                ; preds = %2
  %8 = getelementptr inbounds nuw i8, ptr %0, i64 24
  %9 = load i64, ptr %8, align 8, !tbaa !65
  %10 = tail call noundef i64 @_ZN5arrow8ree_util17FindPhysicalIndexERKNS_9ArraySpanEll(ptr noundef nonnull align 8 dereferenceable(128) %0, i64 noundef %1, i64 noundef %9)
  %11 = load ptr, ptr %3, align 8, !tbaa !64
  %12 = getelementptr inbounds nuw i8, ptr %11, i64 128
  %13 = tail call noundef zeroext i1 @_ZNK5arrow9ArraySpan7IsValidEl(ptr noundef nonnull align 8 dereferenceable(128) %12, i64 noundef %10)
  %14 = xor i1 %13, true
  br label %15

15:                                               ; preds = %2, %7
  %.0 = phi i1 [ %14, %7 ], [ false, %2 ]
  ret i1 %.0
}